; Function Attrs: mustprogress nounwind uwtable
define dso_local void @_ZN4node14SigintWatchdogD0Ev(ptr noundef nonnull align 8 dereferenceable(24) %this) unnamed_addr #3 align 2 {
entry:
  store ptr getelementptr inbounds ({ [5 x ptr] }, ptr @_ZTVN4node14SigintWatchdogE, i64 0, i32 0, i64 2), ptr %this, align 8
  tail call void @uv_mutex_lock(ptr noundef nonnull @_ZN4node20SigintWatchdogHelper22instance_action_mutex_E) #15
  tail call void @_ZN4node20SigintWatchdogHelper10UnregisterEPNS_18SigintWatchdogBaseE(ptr noundef nonnull align 8 dereferenceable(162) @_ZN4node20SigintWatchdogHelper8instanceE, ptr noundef nonnull %this)
  %call4.i = tail call noundef zeroext i1 @_ZN4node20SigintWatchdogHelper4StopEv(ptr noundef nonnull align 8 dereferenceable(162) @_ZN4node20SigintWatchdogHelper8instanceE)
  tail call void @uv_mutex_unlock(ptr noundef nonnull @_ZN4node20SigintWatchdogHelper22instance_action_mutex_E) #15
  tail call void @_ZdlPv(ptr noundef nonnull %this) #18
  ret void
}